Certificate:
    Data:
        Version: 3 (0x2)
        Serial Number:
            61:bb:bb:9f:69:f3:43:7f:3b:5a:78:39:ca:f0:3f:e6
    Signature Algorithm: sha256WithRSAEncryption
        Issuer: CN=Easy-RSA CA
        Validity
            Not Before: May  9 07:25:28 2019 GMT
            Not After : May  6 07:25:28 2029 GMT
        Subject: CN=euclid-ral-gw-0
        Subject Public Key Info:
            Public Key Algorithm: rsaEncryption
                Public-Key: (2048 bit)
                Modulus:
                    00:a7:7d:8d:9b:ff:f6:20:46:8f:bf:c1:e3:b0:32:
                    32:d9:89:77:a7:70:32:b6:c3:6b:64:09:5f:2a:0b:
                    89:ae:07:59:0e:33:0c:03:d5:d3:b6:ed:fc:fe:67:
                    e5:5d:fe:0a:f9:71:bc:aa:7c:83:2c:05:87:c0:97:
                    b0:13:54:fd:0f:f3:28:f2:1e:52:eb:ee:5f:d6:98:
                    f4:5e:d6:2b:22:d6:ee:5d:c7:2c:61:b3:94:14:2b:
                    d7:9d:ac:8a:0d:76:9b:ae:34:a2:9c:80:6e:cb:cf:
                    71:ad:8d:15:d7:92:43:f8:52:8e:e2:7f:2e:a2:c1:
                    45:50:81:f2:f9:39:20:45:41:8f:39:cd:26:7a:0a:
                    8c:ef:6b:1c:ab:9a:b1:1c:d4:b7:87:6d:c8:6f:25:
                    33:20:dc:fc:ab:c7:8f:6a:e7:94:50:e8:b7:4e:71:
                    bf:a2:94:f8:77:de:44:b3:c3:02:5d:58:03:a5:54:
                    4b:ba:3e:01:f1:83:c8:03:7d:b5:d3:15:dd:3f:dd:
                    37:a5:48:f8:77:5a:44:bc:6b:da:e8:a5:78:0d:91:
                    62:a6:17:86:5d:89:d4:23:d8:b5:ce:63:fd:2b:02:
                    1a:37:64:cb:20:84:c9:be:71:98:7d:c7:32:84:01:
                    11:7d:93:1f:e3:5f:97:7c:18:e3:a6:13:ee:39:98:
                    6c:c9
                Exponent: 65537 (0x10001)
        X509v3 extensions:
            X509v3 Basic Constraints: 
                CA:FALSE
            X509v3 Subject Key Identifier: 
                F1:29:85:7B:A5:C8:2D:9C:D6:8F:65:DC:6E:88:F7:30:53:90:5D:F6
            X509v3 Authority Key Identifier: 
                keyid:73:12:7A:AA:7C:C8:0D:E8:C2:90:84:D1:29:B1:39:89:C7:FC:9F:AD
                DirName:/CN=Easy-RSA CA
                serial:AF:39:89:81:D8:16:2A:B8

            X509v3 Extended Key Usage: 
                TLS Web Client Authentication
            X509v3 Key Usage: 
                Digital Signature
    Signature Algorithm: sha256WithRSAEncryption
         93:41:4b:3a:53:38:a1:17:c3:20:32:5b:18:09:14:cc:8d:43:
         11:5f:92:35:1f:53:74:d9:ba:6a:de:ee:34:db:ae:9b:65:77:
         c9:19:f2:a7:05:63:4f:90:d2:ea:af:ff:98:73:de:b0:a8:b2:
         17:4c:c9:a4:eb:6f:cf:ae:85:c7:95:48:da:67:5f:80:21:94:
         4c:67:25:f8:f2:80:2a:95:10:e9:dc:1e:80:3f:90:b6:85:bc:
         24:ef:53:29:fa:02:6f:db:3e:22:2e:a9:8c:bf:94:5e:69:fb:
         ab:e1:ad:19:b7:3f:68:98:88:15:91:33:b5:c9:66:0a:82:91:
         7c:07:7b:97:f0:0f:e0:b4:b2:cd:bd:24:42:4a:b8:fa:ae:b5:
         85:fc:b1:98:4b:ce:d9:52:53:3e:a4:88:07:55:66:93:f8:c7:
         1b:47:12:0b:02:22:d6:a0:8a:88:52:0c:b6:e1:4a:03:76:3d:
         ad:a0:7e:a2:32:c4:48:cb:2c:70:0b:d1:d5:d7:48:9c:3d:80:
         a7:ef:a3:e0:84:a0:f6:07:11:85:b1:24:6f:01:2e:73:50:6b:
         ae:e7:d6:41:09:34:4f:1c:0d:94:fb:69:8d:5b:6e:4f:c6:81:
         ce:e5:9f:a7:00:03:80:4c:7c:45:14:36:65:27:c0:7a:f9:46:
         df:76:48:db
-----BEGIN CERTIFICATE-----
MIIDUjCCAjqgAwIBAgIQYbu7n2nzQ387Wng5yvA/5jANBgkqhkiG9w0BAQsFADAW
MRQwEgYDVQQDDAtFYXN5LVJTQSBDQTAeFw0xOTA1MDkwNzI1MjhaFw0yOTA1MDYw
NzI1MjhaMBoxGDAWBgNVBAMMD2V1Y2xpZC1yYWwtZ3ctMDCCASIwDQYJKoZIhvcN
AQEBBQADggEPADCCAQoCggEBAKd9jZv/9iBGj7/B47AyMtmJd6dwMrbDa2QJXyoL
ia4HWQ4zDAPV07bt/P5n5V3+CvlxvKp8gywFh8CXsBNU/Q/zKPIeUuvuX9aY9F7W
KyLW7l3HLGGzlBQr152sig12m640opyAbsvPca2NFdeSQ/hSjuJ/LqLBRVCB8vk5
IEVBjznNJnoKjO9rHKuasRzUt4dtyG8lMyDc/KvHj2rnlFDot05xv6KU+HfeRLPD
Al1YA6VUS7o+AfGDyAN9tdMV3T/dN6VI+HdaRLxr2uileA2RYqYXhl2J1CPYtc5j
/SsCGjdkyyCEyb5xmH3HMoQBEX2TH+Nfl3wY46YT7jmYbMkCAwEAAaOBlzCBlDAJ
BgNVHRMEAjAAMB0GA1UdDgQWBBTxKYV7pcgtnNaPZdxuiPcwU5Bd9jBGBgNVHSME
PzA9gBRzEnqqfMgN6MKQhNEpsTmJx/yfraEapBgwFjEUMBIGA1UEAwwLRWFzeS1S
U0EgQ0GCCQCvOYmB2BYquDATBgNVHSUEDDAKBggrBgEFBQcDAjALBgNVHQ8EBAMC
B4AwDQYJKoZIhvcNAQELBQADggEBAJNBSzpTOKEXwyAyWxgJFMyNQxFfkjUfU3TZ
umre7jTbrptld8kZ8qcFY0+Q0uqv/5hz3rCoshdMyaTrb8+uhceVSNpnX4AhlExn
JfjygCqVEOncHoA/kLaFvCTvUyn6Am/bPiIuqYy/lF5p+6vhrRm3P2iYiBWRM7XJ
ZgqCkXwHe5fwD+C0ss29JEJKuPqutYX8sZhLztlSUz6kiAdVZpP4xxtHEgsCItag
iohSDLbhSgN2Pa2gfqIyxEjLLHAL0dXXSJw9gKfvo+CEoPYHEYWxJG8BLnNQa67n
1kEJNE8cDZT7aY1bbk/Ggc7ln6cAA4BMfEUUNmUnwHr5Rt92SNs=
-----END CERTIFICATE-----
